target datalayout = "e-m:e-p270:32:32-p271:32:32-p272:64:64-i64:64-i128:128-f80:128-n8:16:32:64-S128"
target triple = "x86_64-pc-linux-gnu"

%struct.merged_subiter = type { %struct.reftable_iterator, %struct.reftable_record }
%struct.reftable_iterator = type { ptr, ptr }
%struct.reftable_record = type { i8, %union.anon }
%union.anon = type { %struct.reftable_log_record }
%struct.reftable_log_record = type { ptr, i64, i64, i32, %union.anon.1 }
%union.anon.1 = type { %struct.anon.2 }
%struct.anon.2 = type { [32 x i8], [32 x i8], ptr, ptr, i64, i16, ptr, i64 }
%struct.merged_iter = type { ptr, %struct.merged_iter_pqueue, i64, i32, i64 }
%struct.merged_iter_pqueue = type { ptr, i64, i64 }
%struct.pq_entry = type { i64, ptr }

; Function Attrs: inlinehint nounwind uwtable
define internal { i64, ptr } @merged_iter_pqueue_top(ptr noundef byval(%struct.merged_iter_pqueue) align 8 %0) #3 {
  %2 = alloca %struct.pq_entry, align 8
  %3 = getelementptr inbounds nuw %struct.merged_iter_pqueue, ptr %0, i32 0, i32 0
  %4 = load ptr, ptr %3, align 8, !tbaa !60
  %5 = getelementptr inbounds %struct.pq_entry, ptr %4, i64 0
  call void @llvm.memcpy.p0.p0.i64(ptr align 8 %2, ptr align 8 %5, i64 16, i1 false), !tbaa.struct !58
  %6 = load { i64, ptr }, ptr %2, align 8
  ret { i64, ptr } %6
}

; Function Attrs: nounwind uwtable
define internal i32 @merged_iter_advance_subiter(ptr noundef %0, i64 noundef %1) #0 {
  %3 = alloca i32, align 4
  %4 = alloca ptr, align 8
  %5 = alloca i64, align 8
  %6 = alloca %struct.pq_entry, align 8
  %7 = alloca i32, align 4
  %8 = alloca i32, align 4
  store ptr %0, ptr %4, align 8, !tbaa !32
  store i64 %1, ptr %5, align 8, !tbaa !11
  call void @llvm.lifetime.start.p0(i64 16, ptr %6) #6
  %9 = getelementptr inbounds nuw %struct.pq_entry, ptr %6, i32 0, i32 0
  %10 = load i64, ptr %5, align 8, !tbaa !11
  store i64 %10, ptr %9, align 8, !tbaa !55
  %11 = getelementptr inbounds nuw %struct.pq_entry, ptr %6, i32 0, i32 1
  %12 = load ptr, ptr %4, align 8, !tbaa !32
  %13 = getelementptr inbounds nuw %struct.merged_iter, ptr %12, i32 0, i32 0
  %14 = load ptr, ptr %13, align 8, !tbaa !41
  %15 = load i64, ptr %5, align 8, !tbaa !11
  %16 = getelementptr inbounds nuw %struct.merged_subiter, ptr %14, i64 %15
  %17 = getelementptr inbounds nuw %struct.merged_subiter, ptr %16, i32 0, i32 1
  store ptr %17, ptr %11, align 8, !tbaa !57
  call void @llvm.lifetime.start.p0(i64 4, ptr %7) #6
  %18 = load ptr, ptr %4, align 8, !tbaa !32
  %19 = getelementptr inbounds nuw %struct.merged_iter, ptr %18, i32 0, i32 0
  %20 = load ptr, ptr %19, align 8, !tbaa !41
  %21 = load i64, ptr %5, align 8, !tbaa !11
  %22 = getelementptr inbounds nuw %struct.merged_subiter, ptr %20, i64 %21
  %23 = getelementptr inbounds nuw %struct.merged_subiter, ptr %22, i32 0, i32 0
  %24 = load ptr, ptr %4, align 8, !tbaa !32
  %25 = getelementptr inbounds nuw %struct.merged_iter, ptr %24, i32 0, i32 0
  %26 = load ptr, ptr %25, align 8, !tbaa !41
  %27 = load i64, ptr %5, align 8, !tbaa !11
  %28 = getelementptr inbounds nuw %struct.merged_subiter, ptr %26, i64 %27
  %29 = getelementptr inbounds nuw %struct.merged_subiter, ptr %28, i32 0, i32 1
  %30 = call i32 @iterator_next(ptr noundef %23, ptr noundef %29)
  store i32 %30, ptr %7, align 4, !tbaa !13
  %31 = load i32, ptr %7, align 4, !tbaa !13
  %32 = icmp ne i32 %31, 0
  br i1 %32, label %33, label %35

33:                                               ; preds = %2
  %34 = load i32, ptr %7, align 4, !tbaa !13
  store i32 %34, ptr %3, align 4
  store i32 1, ptr %8, align 4
  br label %44

35:                                               ; preds = %2
  %36 = load ptr, ptr %4, align 8, !tbaa !32
  %37 = getelementptr inbounds nuw %struct.merged_iter, ptr %36, i32 0, i32 1
  %38 = call i32 @merged_iter_pqueue_add(ptr noundef %37, ptr noundef %6)
  store i32 %38, ptr %7, align 4, !tbaa !13
  %39 = load i32, ptr %7, align 4, !tbaa !13
  %40 = icmp ne i32 %39, 0
  br i1 %40, label %41, label %43

41:                                               ; preds = %35
  %42 = load i32, ptr %7, align 4, !tbaa !13
  store i32 %42, ptr %3, align 4
  store i32 1, ptr %8, align 4
  br label %44

43:                                               ; preds = %35
  store i32 0, ptr %3, align 4
  store i32 1, ptr %8, align 4
  br label %44

44:                                               ; preds = %43, %41, %33
  call void @llvm.lifetime.end.p0(i64 4, ptr %7) #6
  call void @llvm.lifetime.end.p0(i64 16, ptr %6) #6
  %45 = load i32, ptr %3, align 4
  ret i32 %45
}

; Function Attrs: inlinehint nounwind uwtable
define internal i32 @merged_iter_pqueue_is_empty(ptr noundef byval(%struct.merged_iter_pqueue) align 8 %0) #3 {
  %2 = getelementptr inbounds nuw %struct.merged_iter_pqueue, ptr %0, i32 0, i32 1
  %3 = load i64, ptr %2, align 8, !tbaa !54
  %4 = icmp eq i64 %3, 0
  %5 = zext i1 %4 to i32
  ret i32 %5
}

; Function Attrs: nounwind uwtable
define internal i32 @merged_iter_next_entry(ptr noundef %0, ptr noundef %1) #0 {
  %3 = alloca i32, align 4
  %4 = alloca ptr, align 8
  %5 = alloca ptr, align 8
  %6 = alloca %struct.pq_entry, align 8
  %7 = alloca i32, align 4
  %8 = alloca i32, align 4
  %9 = alloca i32, align 4
  %10 = alloca %struct.pq_entry, align 8
  %11 = alloca %struct.pq_entry, align 8
  %12 = alloca i32, align 4
  %13 = alloca %struct.pq_entry, align 8
  %14 = alloca ptr, align 8
  %15 = alloca ptr, align 8
  %16 = alloca [152 x i8], align 16
  store ptr %0, ptr %4, align 8, !tbaa !32
  store ptr %1, ptr %5, align 8, !tbaa !49
  call void @llvm.lifetime.start.p0(i64 16, ptr %6) #6
  call void @llvm.memset.p0.i64(ptr align 8 %6, i8 0, i64 16, i1 false)
  call void @llvm.lifetime.start.p0(i64 4, ptr %7) #6
  store i32 0, ptr %7, align 4, !tbaa !13
  call void @llvm.lifetime.start.p0(i64 4, ptr %8) #6
  %17 = load ptr, ptr %4, align 8, !tbaa !32
  %18 = getelementptr inbounds nuw %struct.merged_iter, ptr %17, i32 0, i32 1
  %19 = call i32 @merged_iter_pqueue_is_empty(ptr noundef byval(%struct.merged_iter_pqueue) align 8 %18)
  store i32 %19, ptr %8, align 4, !tbaa !13
  %20 = load ptr, ptr %4, align 8, !tbaa !32
  %21 = getelementptr inbounds nuw %struct.merged_iter, ptr %20, i32 0, i32 4
  %22 = load i64, ptr %21, align 8, !tbaa !35
  %23 = icmp sge i64 %22, 0
  br i1 %23, label %24, label %55

24:                                               ; preds = %2
  %25 = load i32, ptr %8, align 4, !tbaa !13
  %26 = icmp ne i32 %25, 0
  br i1 %26, label %27, label %38

27:                                               ; preds = %24
  %28 = load ptr, ptr %4, align 8, !tbaa !32
  %29 = getelementptr inbounds nuw %struct.merged_iter, ptr %28, i32 0, i32 0
  %30 = load ptr, ptr %29, align 8, !tbaa !41
  %31 = load ptr, ptr %4, align 8, !tbaa !32
  %32 = getelementptr inbounds nuw %struct.merged_iter, ptr %31, i32 0, i32 4
  %33 = load i64, ptr %32, align 8, !tbaa !35
  %34 = getelementptr inbounds %struct.merged_subiter, ptr %30, i64 %33
  %35 = getelementptr inbounds nuw %struct.merged_subiter, ptr %34, i32 0, i32 0
  %36 = load ptr, ptr %5, align 8, !tbaa !49
  %37 = call i32 @iterator_next(ptr noundef %35, ptr noundef %36)
  store i32 %37, ptr %3, align 4
  store i32 1, ptr %9, align 4
  br label %126

38:                                               ; preds = %24
  %39 = load ptr, ptr %4, align 8, !tbaa !32
  %40 = load ptr, ptr %4, align 8, !tbaa !32
  %41 = getelementptr inbounds nuw %struct.merged_iter, ptr %40, i32 0, i32 4
  %42 = load i64, ptr %41, align 8, !tbaa !35
  %43 = call i32 @merged_iter_advance_subiter(ptr noundef %39, i64 noundef %42)
  store i32 %43, ptr %7, align 4, !tbaa !13
  %44 = load i32, ptr %7, align 4, !tbaa !13
  %45 = icmp slt i32 %44, 0
  br i1 %45, label %46, label %48

46:                                               ; preds = %38
  %47 = load i32, ptr %7, align 4, !tbaa !13
  store i32 %47, ptr %3, align 4
  store i32 1, ptr %9, align 4
  br label %126

48:                                               ; preds = %38
  %49 = load i32, ptr %7, align 4, !tbaa !13
  %50 = icmp ne i32 %49, 0
  br i1 %50, label %52, label %51

51:                                               ; preds = %48
  store i32 0, ptr %8, align 4, !tbaa !13
  br label %52

52:                                               ; preds = %51, %48
  %53 = load ptr, ptr %4, align 8, !tbaa !32
  %54 = getelementptr inbounds nuw %struct.merged_iter, ptr %53, i32 0, i32 4
  store i64 -1, ptr %54, align 8, !tbaa !35
  br label %55

55:                                               ; preds = %52, %2
  %56 = load i32, ptr %8, align 4, !tbaa !13
  %57 = icmp ne i32 %56, 0
  br i1 %57, label %58, label %59

58:                                               ; preds = %55
  store i32 1, ptr %3, align 4
  store i32 1, ptr %9, align 4
  br label %126

59:                                               ; preds = %55
  call void @llvm.lifetime.start.p0(i64 16, ptr %10) #6
  %60 = load ptr, ptr %4, align 8, !tbaa !32
  %61 = getelementptr inbounds nuw %struct.merged_iter, ptr %60, i32 0, i32 1
  %62 = call { i64, ptr } @merged_iter_pqueue_remove(ptr noundef %61)
  %63 = getelementptr inbounds nuw { i64, ptr }, ptr %10, i32 0, i32 0
  %64 = extractvalue { i64, ptr } %62, 0
  store i64 %64, ptr %63, align 8
  %65 = getelementptr inbounds nuw { i64, ptr }, ptr %10, i32 0, i32 1
  %66 = extractvalue { i64, ptr } %62, 1
  store ptr %66, ptr %65, align 8
  call void @llvm.memcpy.p0.p0.i64(ptr align 8 %6, ptr align 8 %10, i64 16, i1 false), !tbaa.struct !58
  call void @llvm.lifetime.end.p0(i64 16, ptr %10) #6
  br label %67

67:                                               ; preds = %108, %59
  %68 = load ptr, ptr %4, align 8, !tbaa !32
  %69 = getelementptr inbounds nuw %struct.merged_iter, ptr %68, i32 0, i32 1
  %70 = call i32 @merged_iter_pqueue_is_empty(ptr noundef byval(%struct.merged_iter_pqueue) align 8 %69)
  %71 = icmp ne i32 %70, 0
  %72 = xor i1 %71, true
  br i1 %72, label %73, label %109

73:                                               ; preds = %67
  call void @llvm.lifetime.start.p0(i64 16, ptr %11) #6
  %74 = load ptr, ptr %4, align 8, !tbaa !32
  %75 = getelementptr inbounds nuw %struct.merged_iter, ptr %74, i32 0, i32 1
  %76 = call { i64, ptr } @merged_iter_pqueue_top(ptr noundef byval(%struct.merged_iter_pqueue) align 8 %75)
  %77 = getelementptr inbounds nuw { i64, ptr }, ptr %11, i32 0, i32 0
  %78 = extractvalue { i64, ptr } %76, 0
  store i64 %78, ptr %77, align 8
  %79 = getelementptr inbounds nuw { i64, ptr }, ptr %11, i32 0, i32 1
  %80 = extractvalue { i64, ptr } %76, 1
  store ptr %80, ptr %79, align 8
  call void @llvm.lifetime.start.p0(i64 4, ptr %12) #6
  %81 = getelementptr inbounds nuw %struct.pq_entry, ptr %11, i32 0, i32 1
  %82 = load ptr, ptr %81, align 8, !tbaa !57
  %83 = getelementptr inbounds nuw %struct.pq_entry, ptr %6, i32 0, i32 1
  %84 = load ptr, ptr %83, align 8, !tbaa !57
  %85 = call i32 @reftable_record_cmp(ptr noundef %82, ptr noundef %84)
  store i32 %85, ptr %12, align 4, !tbaa !13
  %86 = load i32, ptr %12, align 4, !tbaa !13
  %87 = icmp sgt i32 %86, 0
  br i1 %87, label %88, label %89

88:                                               ; preds = %73
  store i32 3, ptr %9, align 4
  br label %106

89:                                               ; preds = %73
  %90 = load ptr, ptr %4, align 8, !tbaa !32
  %91 = getelementptr inbounds nuw %struct.merged_iter, ptr %90, i32 0, i32 1
  %92 = call { i64, ptr } @merged_iter_pqueue_remove(ptr noundef %91)
  %93 = getelementptr inbounds nuw { i64, ptr }, ptr %13, i32 0, i32 0
  %94 = extractvalue { i64, ptr } %92, 0
  store i64 %94, ptr %93, align 8
  %95 = getelementptr inbounds nuw { i64, ptr }, ptr %13, i32 0, i32 1
  %96 = extractvalue { i64, ptr } %92, 1
  store ptr %96, ptr %95, align 8
  %97 = load ptr, ptr %4, align 8, !tbaa !32
  %98 = getelementptr inbounds nuw %struct.pq_entry, ptr %11, i32 0, i32 0
  %99 = load i64, ptr %98, align 8, !tbaa !55
  %100 = call i32 @merged_iter_advance_subiter(ptr noundef %97, i64 noundef %99)
  store i32 %100, ptr %7, align 4, !tbaa !13
  %101 = load i32, ptr %7, align 4, !tbaa !13
  %102 = icmp slt i32 %101, 0
  br i1 %102, label %103, label %105

103:                                              ; preds = %89
  %104 = load i32, ptr %7, align 4, !tbaa !13
  store i32 %104, ptr %3, align 4
  store i32 1, ptr %9, align 4
  br label %106

105:                                              ; preds = %89
  store i32 0, ptr %9, align 4
  br label %106

106:                                              ; preds = %105, %103, %88
  call void @llvm.lifetime.end.p0(i64 4, ptr %12) #6
  call void @llvm.lifetime.end.p0(i64 16, ptr %11) #6
  %107 = load i32, ptr %9, align 4
  switch i32 %107, label %126 [
    i32 0, label %108
    i32 3, label %109
  ]

108:                                              ; preds = %106
  br label %67, !llvm.loop !59

109:                                              ; preds = %106, %67
  %110 = getelementptr inbounds nuw %struct.pq_entry, ptr %6, i32 0, i32 0
  %111 = load i64, ptr %110, align 8, !tbaa !55
  %112 = load ptr, ptr %4, align 8, !tbaa !32
  %113 = getelementptr inbounds nuw %struct.merged_iter, ptr %112, i32 0, i32 4
  store i64 %111, ptr %113, align 8, !tbaa !35
  br label %114

114:                                              ; preds = %109
  call void @llvm.lifetime.start.p0(i64 8, ptr %14) #6
  %115 = load ptr, ptr %5, align 8, !tbaa !49
  store ptr %115, ptr %14, align 8, !tbaa !48
  call void @llvm.lifetime.start.p0(i64 8, ptr %15) #6
  %116 = getelementptr inbounds nuw %struct.pq_entry, ptr %6, i32 0, i32 1
  %117 = load ptr, ptr %116, align 8, !tbaa !57
  store ptr %117, ptr %15, align 8, !tbaa !48
  call void @llvm.lifetime.start.p0(i64 152, ptr %16) #6
  %118 = getelementptr inbounds [152 x i8], ptr %16, i64 0, i64 0
  %119 = load ptr, ptr %14, align 8, !tbaa !48
  call void @llvm.memcpy.p0.p0.i64(ptr align 16 %118, ptr align 1 %119, i64 152, i1 false)
  %120 = load ptr, ptr %14, align 8, !tbaa !48
  %121 = load ptr, ptr %15, align 8, !tbaa !48
  call void @llvm.memcpy.p0.p0.i64(ptr align 1 %120, ptr align 1 %121, i64 152, i1 false)
  %122 = load ptr, ptr %15, align 8, !tbaa !48
  %123 = getelementptr inbounds [152 x i8], ptr %16, i64 0, i64 0
  call void @llvm.memcpy.p0.p0.i64(ptr align 1 %122, ptr align 16 %123, i64 152, i1 false)
  call void @llvm.lifetime.end.p0(i64 152, ptr %16) #6
  call void @llvm.lifetime.end.p0(i64 8, ptr %15) #6
  call void @llvm.lifetime.end.p0(i64 8, ptr %14) #6
  br label %124

124:                                              ; preds = %114
  br label %125

125:                                              ; preds = %124
  store i32 0, ptr %3, align 4
  store i32 1, ptr %9, align 4
  br label %126

126:                                              ; preds = %125, %106, %58, %46, %27
  call void @llvm.lifetime.end.p0(i64 4, ptr %8) #6
  call void @llvm.lifetime.end.p0(i64 4, ptr %7) #6
  call void @llvm.lifetime.end.p0(i64 16, ptr %6) #6
  %127 = load i32, ptr %3, align 4
  ret i32 %127
}

; Function Attrs: nounwind uwtable
define internal i32 @merged_iter_next_void(ptr noundef %0, ptr noundef %1) #0 {
  %3 = alloca i32, align 4
  %4 = alloca ptr, align 8
  %5 = alloca ptr, align 8
  %6 = alloca ptr, align 8
  %7 = alloca i32, align 4
  %8 = alloca i32, align 4
  store ptr %0, ptr %4, align 8, !tbaa !48
  store ptr %1, ptr %5, align 8, !tbaa !49
  call void @llvm.lifetime.start.p0(i64 8, ptr %6) #6
  %9 = load ptr, ptr %4, align 8, !tbaa !48
  store ptr %9, ptr %6, align 8, !tbaa !32
  br label %10

10:                                               ; preds = %30, %2
  br label %11

11:                                               ; preds = %10
  call void @llvm.lifetime.start.p0(i64 4, ptr %7) #6
  %12 = load ptr, ptr %6, align 8, !tbaa !32
  %13 = load ptr, ptr %5, align 8, !tbaa !49
  %14 = call i32 @merged_iter_next_entry(ptr noundef %12, ptr noundef %13)
  store i32 %14, ptr %7, align 4, !tbaa !13
  %15 = load i32, ptr %7, align 4, !tbaa !13
  %16 = icmp ne i32 %15, 0
  br i1 %16, label %17, label %19

17:                                               ; preds = %11
  %18 = load i32, ptr %7, align 4, !tbaa !13
  store i32 %18, ptr %3, align 4
  store i32 1, ptr %8, align 4
  br label %30

19:                                               ; preds = %11
  %20 = load ptr, ptr %6, align 8, !tbaa !32
  %21 = getelementptr inbounds nuw %struct.merged_iter, ptr %20, i32 0, i32 3
  %22 = load i32, ptr %21, align 8, !tbaa !40
  %23 = icmp ne i32 %22, 0
  br i1 %23, label %24, label %29

24:                                               ; preds = %19
  %25 = load ptr, ptr %5, align 8, !tbaa !49
  %26 = call i32 @reftable_record_is_deletion(ptr noundef %25)
  %27 = icmp ne i32 %26, 0
  br i1 %27, label %28, label %29

28:                                               ; preds = %24
  store i32 2, ptr %8, align 4
  br label %30

29:                                               ; preds = %24, %19
  store i32 0, ptr %3, align 4
  store i32 1, ptr %8, align 4
  br label %30

30:                                               ; preds = %29, %28, %17
  call void @llvm.lifetime.end.p0(i64 4, ptr %7) #6
  %31 = load i32, ptr %8, align 4
  switch i32 %31, label %32 [
    i32 2, label %10
  ]

32:                                               ; preds = %30
  call void @llvm.lifetime.end.p0(i64 8, ptr %6) #6
  %33 = load i32, ptr %3, align 4
  ret i32 %33
}