; Function Attrs: nounwind uwtable
define internal i32 @merged_iter_next_void(ptr noundef %0, ptr noundef %1) #0 {
  %3 = alloca %struct.pq_entry, align 8
  %4 = alloca %struct.pq_entry, align 8
  %5 = alloca [152 x i8], align 16
  %6 = getelementptr inbounds nuw i8, ptr %0, i64 8
  %7 = getelementptr i8, ptr %0, i64 16
  %8 = getelementptr inbounds nuw i8, ptr %0, i64 48
  %9 = getelementptr inbounds nuw i8, ptr %4, i64 8
  %10 = getelementptr inbounds nuw i8, ptr %3, i64 8
  %11 = getelementptr inbounds nuw i8, ptr %0, i64 40
  br label %12

12:                                               ; preds = %50, %2
  %.val44.i = load i64, ptr %7, align 8, !tbaa !36
  %.not.i = icmp eq i64 %.val44.i, 0
  %13 = load i64, ptr %8, align 8, !tbaa !23
  %14 = icmp sgt i64 %13, -1
  br i1 %14, label %15, label %25

15:                                               ; preds = %12
  br i1 %.not.i, label %merged_iter_next_entry.exit, label %16

16:                                               ; preds = %15
  call void @llvm.lifetime.start.p0(i64 16, ptr nonnull %4) #6
  store i64 %13, ptr %4, align 8, !tbaa !38
  %17 = load ptr, ptr %0, align 8, !tbaa !30
  %18 = getelementptr inbounds nuw %struct.merged_subiter, ptr %17, i64 %13, i32 1
  store ptr %18, ptr %9, align 8, !tbaa !41
  %19 = getelementptr inbounds nuw %struct.merged_subiter, ptr %17, i64 %13
  %20 = getelementptr inbounds nuw i8, ptr %19, i64 16
  %21 = call i32 @iterator_next(ptr noundef %19, ptr noundef nonnull %20) #6
  %.not.i.i = icmp eq i32 %21, 0
  br i1 %.not.i.i, label %22, label %merged_iter_advance_subiter.exit.i

22:                                               ; preds = %16
  %23 = call i32 @merged_iter_pqueue_add(ptr noundef nonnull %6, ptr noundef nonnull %4) #6
  br label %merged_iter_advance_subiter.exit.i

merged_iter_advance_subiter.exit.i:               ; preds = %22, %16
  %.0.i.i = phi i32 [ %21, %16 ], [ %23, %22 ]
  call void @llvm.lifetime.end.p0(i64 16, ptr nonnull %4) #6
  %24 = icmp slt i32 %.0.i.i, 0
  br i1 %24, label %merged_iter_next_entry.exit.thread, label %.thread.i

.thread.i:                                        ; preds = %merged_iter_advance_subiter.exit.i
  store i64 -1, ptr %8, align 8, !tbaa !23
  br label %26

25:                                               ; preds = %12
  br i1 %.not.i, label %merged_iter_next_entry.exit.thread, label %26

26:                                               ; preds = %25, %.thread.i
  %27 = call { i64, ptr } @merged_iter_pqueue_remove(ptr noundef nonnull %6) #6
  %28 = extractvalue { i64, ptr } %27, 0
  %29 = extractvalue { i64, ptr } %27, 1
  br label %30

30:                                               ; preds = %merged_iter_advance_subiter.exit49.i, %26
  %.val.i = load i64, ptr %7, align 8, !tbaa !36
  %.not58.i = icmp eq i64 %.val.i, 0
  br i1 %.not58.i, label %merged_iter_next_entry.exit.thread14, label %31

31:                                               ; preds = %30
  %.val45.i = load ptr, ptr %6, align 8, !tbaa !43
  %.val45.val.i = load i64, ptr %.val45.i, align 8, !tbaa !44
  %32 = getelementptr i8, ptr %.val45.i, i64 8
  %.val45.val46.i = load ptr, ptr %32, align 8, !tbaa !45
  %33 = call i32 @reftable_record_cmp(ptr noundef %.val45.val46.i, ptr noundef %29) #6
  %34 = icmp sgt i32 %33, 0
  br i1 %34, label %merged_iter_next_entry.exit.thread14, label %35

35:                                               ; preds = %31
  %36 = call { i64, ptr } @merged_iter_pqueue_remove(ptr noundef nonnull %6) #6
  call void @llvm.lifetime.start.p0(i64 16, ptr nonnull %3) #6
  store i64 %.val45.val.i, ptr %3, align 8, !tbaa !38
  %37 = load ptr, ptr %0, align 8, !tbaa !30
  %38 = getelementptr inbounds nuw %struct.merged_subiter, ptr %37, i64 %.val45.val.i, i32 1
  store ptr %38, ptr %10, align 8, !tbaa !41
  %39 = getelementptr inbounds nuw %struct.merged_subiter, ptr %37, i64 %.val45.val.i
  %40 = getelementptr inbounds nuw i8, ptr %39, i64 16
  %41 = call i32 @iterator_next(ptr noundef %39, ptr noundef nonnull %40) #6
  %.not.i47.i = icmp eq i32 %41, 0
  br i1 %.not.i47.i, label %42, label %merged_iter_advance_subiter.exit49.i

42:                                               ; preds = %35
  %43 = call i32 @merged_iter_pqueue_add(ptr noundef nonnull %6, ptr noundef nonnull %3) #6
  br label %merged_iter_advance_subiter.exit49.i

merged_iter_advance_subiter.exit49.i:             ; preds = %42, %35
  %.0.i48.i = phi i32 [ %41, %35 ], [ %43, %42 ]
  call void @llvm.lifetime.end.p0(i64 16, ptr nonnull %3) #6
  %44 = icmp slt i32 %.0.i48.i, 0
  br i1 %44, label %merged_iter_next_entry.exit.thread, label %30

merged_iter_next_entry.exit.thread14:             ; preds = %30, %31
  store i64 %28, ptr %8, align 8, !tbaa !23
  call void @llvm.lifetime.start.p0(i64 152, ptr nonnull %5)
  call void @llvm.memcpy.p0.p0.i64(ptr noundef nonnull align 16 dereferenceable(152) %5, ptr noundef nonnull align 1 dereferenceable(152) %1, i64 152, i1 false)
  call void @llvm.memcpy.p0.p0.i64(ptr noundef nonnull align 1 dereferenceable(152) %1, ptr noundef nonnull align 1 dereferenceable(152) %29, i64 152, i1 false)
  call void @llvm.memcpy.p0.p0.i64(ptr noundef nonnull align 1 dereferenceable(152) %29, ptr noundef nonnull align 16 dereferenceable(152) %5, i64 152, i1 false)
  call void @llvm.lifetime.end.p0(i64 152, ptr nonnull %5)
  br label %48

merged_iter_next_entry.exit:                      ; preds = %15
  %45 = load ptr, ptr %0, align 8, !tbaa !30
  %46 = getelementptr inbounds nuw %struct.merged_subiter, ptr %45, i64 %13
  %47 = call i32 @iterator_next(ptr noundef %46, ptr noundef %1) #6
  %.not = icmp eq i32 %47, 0
  br i1 %.not, label %48, label %merged_iter_next_entry.exit.thread

48:                                               ; preds = %merged_iter_next_entry.exit.thread14, %merged_iter_next_entry.exit
  %49 = load i32, ptr %11, align 8, !tbaa !29
  %.not10 = icmp eq i32 %49, 0
  br i1 %.not10, label %merged_iter_next_entry.exit.thread, label %50

50:                                               ; preds = %48
  %51 = call i32 @reftable_record_is_deletion(ptr noundef %1) #6
  %.not11 = icmp eq i32 %51, 0
  br i1 %.not11, label %merged_iter_next_entry.exit.thread, label %12

merged_iter_next_entry.exit.thread:               ; preds = %48, %50, %25, %merged_iter_advance_subiter.exit.i, %merged_iter_next_entry.exit, %merged_iter_advance_subiter.exit49.i
  %.1.ph = phi i32 [ %.0.i48.i, %merged_iter_advance_subiter.exit49.i ], [ 0, %48 ], [ 0, %50 ], [ %.0.i.i, %merged_iter_advance_subiter.exit.i ], [ 1, %25 ], [ %47, %merged_iter_next_entry.exit ]
  ret i32 %.1.ph
}